target datalayout = "e-m:e-p270:32:32-p271:32:32-p272:64:64-i64:64-i128:128-f80:128-n8:16:32:64-S128"
target triple = "x86_64-pc-linux-gnu"

%"class.__gnu_cxx::__normal_iterator.23" = type { ptr }
%"class.std::unique_ptr" = type { %"struct.std::__uniq_ptr_data" }
%"struct.std::__uniq_ptr_data" = type { %"class.std::__uniq_ptr_impl" }
%"class.std::__uniq_ptr_impl" = type { %"class.std::tuple" }
%"class.std::tuple" = type { %"struct.std::_Tuple_impl" }
%"struct.std::_Tuple_impl" = type { %"struct.std::_Head_base.14" }
%"struct.std::_Head_base.14" = type { ptr }
%"class.std::unique_ptr.15" = type { %"struct.std::__uniq_ptr_data.16" }
%"struct.std::__uniq_ptr_data.16" = type { %"class.std::__uniq_ptr_impl.17" }
%"class.std::__uniq_ptr_impl.17" = type { %"class.std::tuple.18" }
%"class.std::tuple.18" = type { %"struct.std::_Tuple_impl.19" }
%"struct.std::_Tuple_impl.19" = type { %"struct.std::_Head_base.22" }
%"struct.std::_Head_base.22" = type { ptr }
%"class.clang::MultiplexConsumer" = type { %"class.clang::SemaConsumer.base", %"class.std::vector.8", %"class.std::unique_ptr", %"class.std::unique_ptr.15" }
%"class.clang::SemaConsumer.base" = type { %"class.clang::ASTConsumer.base" }
%"class.clang::ASTConsumer.base" = type <{ ptr, i8 }>
%"class.std::vector.8" = type { %"struct.std::_Vector_base.9" }
%"struct.std::_Vector_base.9" = type { %"struct.std::_Vector_base<std::unique_ptr<clang::ASTConsumer>, std::allocator<std::unique_ptr<clang::ASTConsumer>>>::_Vector_impl" }
%"struct.std::_Vector_base<std::unique_ptr<clang::ASTConsumer>, std::allocator<std::unique_ptr<clang::ASTConsumer>>>::_Vector_impl" = type { %"struct.std::_Vector_base<std::unique_ptr<clang::ASTConsumer>, std::allocator<std::unique_ptr<clang::ASTConsumer>>>::_Vector_impl_data" }
%"struct.std::_Vector_base<std::unique_ptr<clang::ASTConsumer>, std::allocator<std::unique_ptr<clang::ASTConsumer>>>::_Vector_impl_data" = type { ptr, ptr, ptr }
%"class.std::unique_ptr.24" = type { %"struct.std::__uniq_ptr_data.25" }
%"struct.std::__uniq_ptr_data.25" = type { %"class.std::__uniq_ptr_impl.26" }
%"class.std::__uniq_ptr_impl.26" = type { %"class.std::tuple.27" }
%"class.std::tuple.27" = type { %"struct.std::_Tuple_impl.28" }
%"struct.std::_Tuple_impl.28" = type { %"struct.std::_Head_base.31" }
%"struct.std::_Head_base.31" = type { ptr }
%"class.clang::DeclGroupRef" = type { ptr }

; Function Attrs: mustprogress nounwind uwtable
define linkonce_odr hidden noundef nonnull align 8 dereferenceable(8) ptr @_ZNSt10_Head_baseILm0EPN5clang11ASTConsumerELb0EE7_M_headERKS3_(ptr noundef nonnull align 8 dereferenceable(8) %0) #0 comdat align 2 {
  %2 = alloca ptr, align 8
  store ptr %0, ptr %2, align 8
  %3 = load ptr, ptr %2, align 8
  %4 = getelementptr inbounds nuw %"struct.std::_Head_base.31", ptr %3, i32 0, i32 0
  ret ptr %4
}

; Function Attrs: mustprogress nounwind uwtable
define linkonce_odr hidden noundef nonnull align 8 dereferenceable(8) ptr @_ZNSt11_Tuple_implILm0EJPN5clang11ASTConsumerESt14default_deleteIS1_EEE7_M_headERKS5_(ptr noundef nonnull align 8 dereferenceable(8) %0) #0 comdat align 2 {
  %2 = alloca ptr, align 8
  store ptr %0, ptr %2, align 8
  %3 = load ptr, ptr %2, align 8
  %4 = call noundef nonnull align 8 dereferenceable(8) ptr @_ZNSt10_Head_baseILm0EPN5clang11ASTConsumerELb0EE7_M_headERKS3_(ptr noundef nonnull align 8 dereferenceable(8) %3) #8
  ret ptr %4
}

; Function Attrs: mustprogress nounwind uwtable
define linkonce_odr noundef nonnull align 8 dereferenceable(8) ptr @_ZSt12__get_helperILm0EPN5clang11ASTConsumerEJSt14default_deleteIS1_EEERKT0_RKSt11_Tuple_implIXT_EJS5_DpT1_EE(ptr noundef nonnull align 8 dereferenceable(8) %0) #0 comdat {
  %2 = alloca ptr, align 8
  store ptr %0, ptr %2, align 8
  %3 = load ptr, ptr %2, align 8
  %4 = call noundef nonnull align 8 dereferenceable(8) ptr @_ZNSt11_Tuple_implILm0EJPN5clang11ASTConsumerESt14default_deleteIS1_EEE7_M_headERKS5_(ptr noundef nonnull align 8 dereferenceable(8) %3) #8
  ret ptr %4
}

; Function Attrs: mustprogress nounwind uwtable
define linkonce_odr noundef nonnull align 8 dereferenceable(8) ptr @_ZSt3getILm0EJPN5clang11ASTConsumerESt14default_deleteIS1_EEERKNSt13tuple_elementIXT_ESt5tupleIJDpT0_EEE4typeERKS9_(ptr noundef nonnull align 8 dereferenceable(8) %0) #0 comdat {
  %2 = alloca ptr, align 8
  store ptr %0, ptr %2, align 8
  %3 = load ptr, ptr %2, align 8
  %4 = call noundef nonnull align 8 dereferenceable(8) ptr @_ZSt12__get_helperILm0EPN5clang11ASTConsumerEJSt14default_deleteIS1_EEERKT0_RKSt11_Tuple_implIXT_EJS5_DpT1_EE(ptr noundef nonnull align 8 dereferenceable(8) %3) #8
  ret ptr %4
}

; Function Attrs: mustprogress nounwind uwtable
define linkonce_odr hidden noundef ptr @_ZNKSt15__uniq_ptr_implIN5clang11ASTConsumerESt14default_deleteIS1_EE6_M_ptrEv(ptr noundef nonnull align 8 dereferenceable(8) %0) #0 comdat align 2 {
  %2 = alloca ptr, align 8
  store ptr %0, ptr %2, align 8
  %3 = load ptr, ptr %2, align 8
  %4 = getelementptr inbounds nuw %"class.std::__uniq_ptr_impl.26", ptr %3, i32 0, i32 0
  %5 = call noundef nonnull align 8 dereferenceable(8) ptr @_ZSt3getILm0EJPN5clang11ASTConsumerESt14default_deleteIS1_EEERKNSt13tuple_elementIXT_ESt5tupleIJDpT0_EEE4typeERKS9_(ptr noundef nonnull align 8 dereferenceable(8) %4) #8
  %6 = load ptr, ptr %5, align 8
  ret ptr %6
}

; Function Attrs: mustprogress nounwind uwtable
define linkonce_odr hidden noundef ptr @_ZNKSt10unique_ptrIN5clang11ASTConsumerESt14default_deleteIS1_EE3getEv(ptr noundef nonnull align 8 dereferenceable(8) %0) #0 comdat align 2 {
  %2 = alloca ptr, align 8
  store ptr %0, ptr %2, align 8
  %3 = load ptr, ptr %2, align 8
  %4 = getelementptr inbounds nuw %"class.std::unique_ptr.24", ptr %3, i32 0, i32 0
  %5 = call noundef ptr @_ZNKSt15__uniq_ptr_implIN5clang11ASTConsumerESt14default_deleteIS1_EE6_M_ptrEv(ptr noundef nonnull align 8 dereferenceable(8) %4) #8
  ret ptr %5
}

; Function Attrs: mustprogress nounwind uwtable
define linkonce_odr hidden noundef nonnull align 8 dereferenceable(8) ptr @_ZNK9__gnu_cxx17__normal_iteratorIPSt10unique_ptrIN5clang11ASTConsumerESt14default_deleteIS3_EESt6vectorIS6_SaIS6_EEE4baseEv(ptr noundef nonnull align 8 dereferenceable(8) %0) #0 comdat align 2 {
  %2 = alloca ptr, align 8
  store ptr %0, ptr %2, align 8
  %3 = load ptr, ptr %2, align 8
  %4 = getelementptr inbounds nuw %"class.__gnu_cxx::__normal_iterator.23", ptr %3, i32 0, i32 0
  ret ptr %4
}

; Function Attrs: mustprogress nounwind uwtable
define linkonce_odr hidden void @_ZN9__gnu_cxx17__normal_iteratorIPSt10unique_ptrIN5clang11ASTConsumerESt14default_deleteIS3_EESt6vectorIS6_SaIS6_EEEC2ERKS7_(ptr noundef nonnull align 8 dereferenceable(8) %0, ptr noundef nonnull align 8 dereferenceable(8) %1) unnamed_addr #0 comdat align 2 {
  %3 = alloca ptr, align 8
  %4 = alloca ptr, align 8
  store ptr %0, ptr %3, align 8
  store ptr %1, ptr %4, align 8
  %5 = load ptr, ptr %3, align 8
  %6 = getelementptr inbounds nuw %"class.__gnu_cxx::__normal_iterator.23", ptr %5, i32 0, i32 0
  %7 = load ptr, ptr %4, align 8
  %8 = load ptr, ptr %7, align 8
  store ptr %8, ptr %6, align 8
  ret void
}

; Function Attrs: mustprogress nounwind uwtable
define linkonce_odr hidden noundef nonnull align 8 dereferenceable(8) ptr @_ZN9__gnu_cxx17__normal_iteratorIPSt10unique_ptrIN5clang11ASTConsumerESt14default_deleteIS3_EESt6vectorIS6_SaIS6_EEEppEv(ptr noundef nonnull align 8 dereferenceable(8) %0) #0 comdat align 2 {
  %2 = alloca ptr, align 8
  store ptr %0, ptr %2, align 8
  %3 = load ptr, ptr %2, align 8
  %4 = getelementptr inbounds nuw %"class.__gnu_cxx::__normal_iterator.23", ptr %3, i32 0, i32 0
  %5 = load ptr, ptr %4, align 8
  %6 = getelementptr inbounds %"class.std::unique_ptr.24", ptr %5, i32 1
  store ptr %6, ptr %4, align 8
  ret ptr %3
}

; Function Attrs: mustprogress nounwind uwtable
define linkonce_odr hidden noundef ptr @_ZNKSt10unique_ptrIN5clang11ASTConsumerESt14default_deleteIS1_EEptEv(ptr noundef nonnull align 8 dereferenceable(8) %0) #0 comdat align 2 {
  %2 = alloca ptr, align 8
  store ptr %0, ptr %2, align 8
  %3 = load ptr, ptr %2, align 8
  %4 = call noundef ptr @_ZNKSt10unique_ptrIN5clang11ASTConsumerESt14default_deleteIS1_EE3getEv(ptr noundef nonnull align 8 dereferenceable(8) %3) #8
  ret ptr %4
}

; Function Attrs: mustprogress nounwind uwtable
define linkonce_odr hidden noundef nonnull align 8 dereferenceable(8) ptr @_ZNK9__gnu_cxx17__normal_iteratorIPSt10unique_ptrIN5clang11ASTConsumerESt14default_deleteIS3_EESt6vectorIS6_SaIS6_EEEdeEv(ptr noundef nonnull align 8 dereferenceable(8) %0) #0 comdat align 2 {
  %2 = alloca ptr, align 8
  store ptr %0, ptr %2, align 8
  %3 = load ptr, ptr %2, align 8
  %4 = getelementptr inbounds nuw %"class.__gnu_cxx::__normal_iterator.23", ptr %3, i32 0, i32 0
  %5 = load ptr, ptr %4, align 8
  ret ptr %5
}

; Function Attrs: mustprogress nounwind uwtable
define linkonce_odr noundef zeroext i1 @_ZN9__gnu_cxxneIPSt10unique_ptrIN5clang11ASTConsumerESt14default_deleteIS3_EESt6vectorIS6_SaIS6_EEEEbRKNS_17__normal_iteratorIT_T0_EESG_(ptr noundef nonnull align 8 dereferenceable(8) %0, ptr noundef nonnull align 8 dereferenceable(8) %1) #0 comdat {
  %3 = alloca ptr, align 8
  %4 = alloca ptr, align 8
  store ptr %0, ptr %3, align 8
  store ptr %1, ptr %4, align 8
  %5 = load ptr, ptr %3, align 8
  %6 = call noundef nonnull align 8 dereferenceable(8) ptr @_ZNK9__gnu_cxx17__normal_iteratorIPSt10unique_ptrIN5clang11ASTConsumerESt14default_deleteIS3_EESt6vectorIS6_SaIS6_EEE4baseEv(ptr noundef nonnull align 8 dereferenceable(8) %5) #8
  %7 = load ptr, ptr %6, align 8
  %8 = load ptr, ptr %4, align 8
  %9 = call noundef nonnull align 8 dereferenceable(8) ptr @_ZNK9__gnu_cxx17__normal_iteratorIPSt10unique_ptrIN5clang11ASTConsumerESt14default_deleteIS3_EESt6vectorIS6_SaIS6_EEE4baseEv(ptr noundef nonnull align 8 dereferenceable(8) %8) #8
  %10 = load ptr, ptr %9, align 8
  %11 = icmp ne ptr %7, %10
  ret i1 %11
}

; Function Attrs: mustprogress nounwind uwtable
define linkonce_odr hidden ptr @_ZNSt6vectorISt10unique_ptrIN5clang11ASTConsumerESt14default_deleteIS2_EESaIS5_EE3endEv(ptr noundef nonnull align 8 dereferenceable(24) %0) #0 comdat align 2 {
  %2 = alloca %"class.__gnu_cxx::__normal_iterator.23", align 8
  %3 = alloca ptr, align 8
  store ptr %0, ptr %3, align 8
  %4 = load ptr, ptr %3, align 8
  %5 = getelementptr inbounds nuw %"struct.std::_Vector_base.9", ptr %4, i32 0, i32 0
  %6 = getelementptr inbounds nuw %"struct.std::_Vector_base<std::unique_ptr<clang::ASTConsumer>, std::allocator<std::unique_ptr<clang::ASTConsumer>>>::_Vector_impl_data", ptr %5, i32 0, i32 1
  call void @_ZN9__gnu_cxx17__normal_iteratorIPSt10unique_ptrIN5clang11ASTConsumerESt14default_deleteIS3_EESt6vectorIS6_SaIS6_EEEC2ERKS7_(ptr noundef nonnull align 8 dereferenceable(8) %2, ptr noundef nonnull align 8 dereferenceable(8) %6) #8
  %7 = getelementptr inbounds nuw %"class.__gnu_cxx::__normal_iterator.23", ptr %2, i32 0, i32 0
  %8 = load ptr, ptr %7, align 8
  ret ptr %8
}

; Function Attrs: mustprogress nounwind uwtable
define linkonce_odr hidden ptr @_ZNSt6vectorISt10unique_ptrIN5clang11ASTConsumerESt14default_deleteIS2_EESaIS5_EE5beginEv(ptr noundef nonnull align 8 dereferenceable(24) %0) #0 comdat align 2 {
  %2 = alloca %"class.__gnu_cxx::__normal_iterator.23", align 8
  %3 = alloca ptr, align 8
  store ptr %0, ptr %3, align 8
  %4 = load ptr, ptr %3, align 8
  %5 = getelementptr inbounds nuw %"struct.std::_Vector_base.9", ptr %4, i32 0, i32 0
  %6 = getelementptr inbounds nuw %"struct.std::_Vector_base<std::unique_ptr<clang::ASTConsumer>, std::allocator<std::unique_ptr<clang::ASTConsumer>>>::_Vector_impl_data", ptr %5, i32 0, i32 0
  call void @_ZN9__gnu_cxx17__normal_iteratorIPSt10unique_ptrIN5clang11ASTConsumerESt14default_deleteIS3_EESt6vectorIS6_SaIS6_EEEC2ERKS7_(ptr noundef nonnull align 8 dereferenceable(8) %2, ptr noundef nonnull align 8 dereferenceable(8) %6) #8
  %7 = getelementptr inbounds nuw %"class.__gnu_cxx::__normal_iterator.23", ptr %2, i32 0, i32 0
  %8 = load ptr, ptr %7, align 8
  ret ptr %8
}

; Function Attrs: mustprogress nounwind uwtable
define dso_local void @_ZN5clang17MultiplexConsumer33HandleTopLevelDeclInObjCContainerENS_12DeclGroupRefE(ptr noundef nonnull align 8 dereferenceable(56) %0, ptr %1) unnamed_addr #0 align 2 {
  %3 = alloca %"class.clang::DeclGroupRef", align 8
  %4 = alloca ptr, align 8
  %5 = alloca ptr, align 8
  %6 = alloca %"class.__gnu_cxx::__normal_iterator.23", align 8
  %7 = alloca %"class.__gnu_cxx::__normal_iterator.23", align 8
  %8 = alloca ptr, align 8
  %9 = alloca %"class.clang::DeclGroupRef", align 8
  %10 = getelementptr inbounds nuw %"class.clang::DeclGroupRef", ptr %3, i32 0, i32 0
  store ptr %1, ptr %10, align 8
  store ptr %0, ptr %4, align 8
  %11 = load ptr, ptr %4, align 8
  %12 = getelementptr inbounds nuw %"class.clang::MultiplexConsumer", ptr %11, i32 0, i32 1
  store ptr %12, ptr %5, align 8
  %13 = load ptr, ptr %5, align 8
  %14 = call ptr @_ZNSt6vectorISt10unique_ptrIN5clang11ASTConsumerESt14default_deleteIS2_EESaIS5_EE5beginEv(ptr noundef nonnull align 8 dereferenceable(24) %13) #8
  %15 = getelementptr inbounds nuw %"class.__gnu_cxx::__normal_iterator.23", ptr %6, i32 0, i32 0
  store ptr %14, ptr %15, align 8
  %16 = load ptr, ptr %5, align 8
  %17 = call ptr @_ZNSt6vectorISt10unique_ptrIN5clang11ASTConsumerESt14default_deleteIS2_EESaIS5_EE3endEv(ptr noundef nonnull align 8 dereferenceable(24) %16) #8
  %18 = getelementptr inbounds nuw %"class.__gnu_cxx::__normal_iterator.23", ptr %7, i32 0, i32 0
  store ptr %17, ptr %18, align 8
  br label %19

19:                                               ; preds = %30, %2
  %20 = call noundef zeroext i1 @_ZN9__gnu_cxxneIPSt10unique_ptrIN5clang11ASTConsumerESt14default_deleteIS3_EESt6vectorIS6_SaIS6_EEEEbRKNS_17__normal_iteratorIT_T0_EESG_(ptr noundef nonnull align 8 dereferenceable(8) %6, ptr noundef nonnull align 8 dereferenceable(8) %7) #8
  br i1 %20, label %21, label %32

21:                                               ; preds = %19
  %22 = call noundef nonnull align 8 dereferenceable(8) ptr @_ZNK9__gnu_cxx17__normal_iteratorIPSt10unique_ptrIN5clang11ASTConsumerESt14default_deleteIS3_EESt6vectorIS6_SaIS6_EEEdeEv(ptr noundef nonnull align 8 dereferenceable(8) %6) #8
  store ptr %22, ptr %8, align 8
  %23 = load ptr, ptr %8, align 8
  %24 = call noundef ptr @_ZNKSt10unique_ptrIN5clang11ASTConsumerESt14default_deleteIS1_EEptEv(ptr noundef nonnull align 8 dereferenceable(8) %23) #8
  call void @llvm.memcpy.p0.p0.i64(ptr align 8 %9, ptr align 8 %3, i64 8, i1 false)
  %25 = getelementptr inbounds nuw %"class.clang::DeclGroupRef", ptr %9, i32 0, i32 0
  %26 = load ptr, ptr %25, align 8
  %27 = load ptr, ptr %24, align 8
  %28 = getelementptr inbounds ptr, ptr %27, i64 10
  %29 = load ptr, ptr %28, align 8
  call void %29(ptr noundef nonnull align 8 dereferenceable(9) %24, ptr %26)
  br label %30

30:                                               ; preds = %21
  %31 = call noundef nonnull align 8 dereferenceable(8) ptr @_ZN9__gnu_cxx17__normal_iteratorIPSt10unique_ptrIN5clang11ASTConsumerESt14default_deleteIS3_EESt6vectorIS6_SaIS6_EEEppEv(ptr noundef nonnull align 8 dereferenceable(8) %6) #8
  br label %19

32:                                               ; preds = %19
  ret void
}