; Function Attrs: mustprogress nounwind uwtable
define dso_local void @_ZN5clang17MultiplexConsumer33HandleTopLevelDeclInObjCContainerENS_12DeclGroupRefE(ptr noundef nonnull readonly align 8 captures(none) dereferenceable(56) %0, ptr %1) unnamed_addr #0 align 2 {
  %3 = getelementptr inbounds nuw i8, ptr %0, i64 16
  %4 = load ptr, ptr %3, align 8
  %5 = getelementptr inbounds nuw i8, ptr %0, i64 24
  %6 = load ptr, ptr %5, align 8
  %.not8 = icmp eq ptr %4, %6
  br i1 %.not8, label %._crit_edge, label %.lr.ph

.lr.ph:                                           ; preds = %2, %.lr.ph
  %.sroa.05.09 = phi ptr [ %11, %.lr.ph ], [ %4, %2 ]
  %7 = load ptr, ptr %.sroa.05.09, align 8
  %8 = load ptr, ptr %7, align 8
  %9 = getelementptr inbounds nuw i8, ptr %8, i64 80
  %10 = load ptr, ptr %9, align 8
  tail call void %10(ptr noundef nonnull align 8 dereferenceable(9) %7, ptr %1) #14
  %11 = getelementptr inbounds nuw i8, ptr %.sroa.05.09, i64 8
  %.not = icmp eq ptr %11, %6
  br i1 %.not, label %._crit_edge, label %.lr.ph

._crit_edge:                                      ; preds = %.lr.ph, %2
  ret void
}